target datalayout = "e-m:e-p270:32:32-p271:32:32-p272:64:64-i64:64-i128:128-f80:128-n8:16:32:64-S128"
target triple = "x86_64-pc-linux-gnu"

%struct.mz_stream_s = type { ptr, i32, i64, ptr, i32, i64, ptr, ptr, ptr, ptr, ptr, i32, i64, i64 }
%struct.tdefl_compressor = type { ptr, ptr, i32, [2 x i32], i32, i32, i32, i32, i32, ptr, ptr, ptr, ptr, i32, i32, i32, i32, i32, i32, i32, i32, i32, i32, i32, i32, i32, i32, ptr, ptr, ptr, ptr, i32, ptr, i64, i64, [33025 x i8], [3 x [288 x i16]], [3 x [288 x i16]], [3 x [288 x i8]], [65536 x i8], [32768 x i16], [32768 x i16], [85196 x i8] }

; Function Attrs: mustprogress nounwind uwtable
define i32 @tdefl_get_adler32(ptr noundef %0) #4 {
  %2 = alloca ptr, align 8
  store ptr %0, ptr %2, align 8
  %3 = load ptr, ptr %2, align 8
  %4 = getelementptr inbounds %struct.tdefl_compressor, ptr %3, i32 0, i32 5
  %5 = load i32, ptr %4, align 8
  ret i32 %5
}

; Function Attrs: mustprogress uwtable
define i32 @mz_deflate(ptr noundef %0, i32 noundef %1) #5 {
  %3 = alloca i32, align 4
  %4 = alloca ptr, align 8
  %5 = alloca i32, align 4
  %6 = alloca i64, align 8
  %7 = alloca i64, align 8
  %8 = alloca i64, align 8
  %9 = alloca i64, align 8
  %10 = alloca i32, align 4
  %11 = alloca i32, align 4
  store ptr %0, ptr %4, align 8
  store i32 %1, ptr %5, align 4
  store i32 0, ptr %10, align 4
  %12 = load ptr, ptr %4, align 8
  %13 = icmp ne ptr %12, null
  br i1 %13, label %14, label %30

14:                                               ; preds = %2
  %15 = load ptr, ptr %4, align 8
  %16 = getelementptr inbounds %struct.mz_stream_s, ptr %15, i32 0, i32 7
  %17 = load ptr, ptr %16, align 8
  %18 = icmp ne ptr %17, null
  br i1 %18, label %19, label %30

19:                                               ; preds = %14
  %20 = load i32, ptr %5, align 4
  %21 = icmp slt i32 %20, 0
  br i1 %21, label %30, label %22

22:                                               ; preds = %19
  %23 = load i32, ptr %5, align 4
  %24 = icmp sgt i32 %23, 4
  br i1 %24, label %30, label %25

25:                                               ; preds = %22
  %26 = load ptr, ptr %4, align 8
  %27 = getelementptr inbounds %struct.mz_stream_s, ptr %26, i32 0, i32 3
  %28 = load ptr, ptr %27, align 8
  %29 = icmp ne ptr %28, null
  br i1 %29, label %31, label %30

30:                                               ; preds = %25, %22, %19, %14, %2
  store i32 -2, ptr %3, align 4
  br label %170

31:                                               ; preds = %25
  %32 = load ptr, ptr %4, align 8
  %33 = getelementptr inbounds %struct.mz_stream_s, ptr %32, i32 0, i32 4
  %34 = load i32, ptr %33, align 8
  %35 = icmp ne i32 %34, 0
  br i1 %35, label %37, label %36

36:                                               ; preds = %31
  store i32 -5, ptr %3, align 4
  br label %170

37:                                               ; preds = %31
  %38 = load i32, ptr %5, align 4
  %39 = icmp eq i32 %38, 1
  br i1 %39, label %40, label %41

40:                                               ; preds = %37
  store i32 2, ptr %5, align 4
  br label %41

41:                                               ; preds = %40, %37
  %42 = load ptr, ptr %4, align 8
  %43 = getelementptr inbounds %struct.mz_stream_s, ptr %42, i32 0, i32 7
  %44 = load ptr, ptr %43, align 8
  %45 = getelementptr inbounds %struct.tdefl_compressor, ptr %44, i32 0, i32 26
  %46 = load i32, ptr %45, align 4
  %47 = icmp eq i32 %46, 1
  br i1 %47, label %48, label %52

48:                                               ; preds = %41
  %49 = load i32, ptr %5, align 4
  %50 = icmp eq i32 %49, 4
  %51 = select i1 %50, i32 1, i32 -5
  store i32 %51, ptr %3, align 4
  br label %170

52:                                               ; preds = %41
  %53 = load ptr, ptr %4, align 8
  %54 = getelementptr inbounds %struct.mz_stream_s, ptr %53, i32 0, i32 2
  %55 = load i64, ptr %54, align 8
  store i64 %55, ptr %8, align 8
  %56 = load ptr, ptr %4, align 8
  %57 = getelementptr inbounds %struct.mz_stream_s, ptr %56, i32 0, i32 5
  %58 = load i64, ptr %57, align 8
  store i64 %58, ptr %9, align 8
  br label %59

59:                                               ; preds = %167, %52
  %60 = load ptr, ptr %4, align 8
  %61 = getelementptr inbounds %struct.mz_stream_s, ptr %60, i32 0, i32 1
  %62 = load i32, ptr %61, align 8
  %63 = zext i32 %62 to i64
  store i64 %63, ptr %6, align 8
  %64 = load ptr, ptr %4, align 8
  %65 = getelementptr inbounds %struct.mz_stream_s, ptr %64, i32 0, i32 4
  %66 = load i32, ptr %65, align 8
  %67 = zext i32 %66 to i64
  store i64 %67, ptr %7, align 8
  %68 = load ptr, ptr %4, align 8
  %69 = getelementptr inbounds %struct.mz_stream_s, ptr %68, i32 0, i32 7
  %70 = load ptr, ptr %69, align 8
  %71 = load ptr, ptr %4, align 8
  %72 = getelementptr inbounds %struct.mz_stream_s, ptr %71, i32 0, i32 0
  %73 = load ptr, ptr %72, align 8
  %74 = load ptr, ptr %4, align 8
  %75 = getelementptr inbounds %struct.mz_stream_s, ptr %74, i32 0, i32 3
  %76 = load ptr, ptr %75, align 8
  %77 = load i32, ptr %5, align 4
  %78 = call i32 @tdefl_compress(ptr noundef %70, ptr noundef %73, ptr noundef %6, ptr noundef %76, ptr noundef %7, i32 noundef %77)
  store i32 %78, ptr %11, align 4
  %79 = load i64, ptr %6, align 8
  %80 = trunc i64 %79 to i32
  %81 = load ptr, ptr %4, align 8
  %82 = getelementptr inbounds %struct.mz_stream_s, ptr %81, i32 0, i32 0
  %83 = load ptr, ptr %82, align 8
  %84 = zext i32 %80 to i64
  %85 = getelementptr inbounds i8, ptr %83, i64 %84
  store ptr %85, ptr %82, align 8
  %86 = load i64, ptr %6, align 8
  %87 = trunc i64 %86 to i32
  %88 = load ptr, ptr %4, align 8
  %89 = getelementptr inbounds %struct.mz_stream_s, ptr %88, i32 0, i32 1
  %90 = load i32, ptr %89, align 8
  %91 = sub i32 %90, %87
  store i32 %91, ptr %89, align 8
  %92 = load i64, ptr %6, align 8
  %93 = trunc i64 %92 to i32
  %94 = zext i32 %93 to i64
  %95 = load ptr, ptr %4, align 8
  %96 = getelementptr inbounds %struct.mz_stream_s, ptr %95, i32 0, i32 2
  %97 = load i64, ptr %96, align 8
  %98 = add i64 %97, %94
  store i64 %98, ptr %96, align 8
  %99 = load ptr, ptr %4, align 8
  %100 = getelementptr inbounds %struct.mz_stream_s, ptr %99, i32 0, i32 7
  %101 = load ptr, ptr %100, align 8
  %102 = call i32 @tdefl_get_adler32(ptr noundef %101)
  %103 = zext i32 %102 to i64
  %104 = load ptr, ptr %4, align 8
  %105 = getelementptr inbounds %struct.mz_stream_s, ptr %104, i32 0, i32 12
  store i64 %103, ptr %105, align 8
  %106 = load i64, ptr %7, align 8
  %107 = trunc i64 %106 to i32
  %108 = load ptr, ptr %4, align 8
  %109 = getelementptr inbounds %struct.mz_stream_s, ptr %108, i32 0, i32 3
  %110 = load ptr, ptr %109, align 8
  %111 = zext i32 %107 to i64
  %112 = getelementptr inbounds i8, ptr %110, i64 %111
  store ptr %112, ptr %109, align 8
  %113 = load i64, ptr %7, align 8
  %114 = trunc i64 %113 to i32
  %115 = load ptr, ptr %4, align 8
  %116 = getelementptr inbounds %struct.mz_stream_s, ptr %115, i32 0, i32 4
  %117 = load i32, ptr %116, align 8
  %118 = sub i32 %117, %114
  store i32 %118, ptr %116, align 8
  %119 = load i64, ptr %7, align 8
  %120 = trunc i64 %119 to i32
  %121 = zext i32 %120 to i64
  %122 = load ptr, ptr %4, align 8
  %123 = getelementptr inbounds %struct.mz_stream_s, ptr %122, i32 0, i32 5
  %124 = load i64, ptr %123, align 8
  %125 = add i64 %124, %121
  store i64 %125, ptr %123, align 8
  %126 = load i32, ptr %11, align 4
  %127 = icmp slt i32 %126, 0
  br i1 %127, label %128, label %129

128:                                              ; preds = %59
  store i32 -2, ptr %10, align 4
  br label %168

129:                                              ; preds = %59
  %130 = load i32, ptr %11, align 4
  %131 = icmp eq i32 %130, 1
  br i1 %131, label %132, label %133

132:                                              ; preds = %129
  store i32 1, ptr %10, align 4
  br label %168

133:                                              ; preds = %129
  %134 = load ptr, ptr %4, align 8
  %135 = getelementptr inbounds %struct.mz_stream_s, ptr %134, i32 0, i32 4
  %136 = load i32, ptr %135, align 8
  %137 = icmp ne i32 %136, 0
  br i1 %137, label %139, label %138

138:                                              ; preds = %133
  br label %168

139:                                              ; preds = %133
  %140 = load ptr, ptr %4, align 8
  %141 = getelementptr inbounds %struct.mz_stream_s, ptr %140, i32 0, i32 1
  %142 = load i32, ptr %141, align 8
  %143 = icmp ne i32 %142, 0
  br i1 %143, label %164, label %144

144:                                              ; preds = %139
  %145 = load i32, ptr %5, align 4
  %146 = icmp ne i32 %145, 4
  br i1 %146, label %147, label %164

147:                                              ; preds = %144
  %148 = load i32, ptr %5, align 4
  %149 = icmp ne i32 %148, 0
  br i1 %149, label %162, label %150

150:                                              ; preds = %147
  %151 = load ptr, ptr %4, align 8
  %152 = getelementptr inbounds %struct.mz_stream_s, ptr %151, i32 0, i32 2
  %153 = load i64, ptr %152, align 8
  %154 = load i64, ptr %8, align 8
  %155 = icmp ne i64 %153, %154
  br i1 %155, label %162, label %156

156:                                              ; preds = %150
  %157 = load ptr, ptr %4, align 8
  %158 = getelementptr inbounds %struct.mz_stream_s, ptr %157, i32 0, i32 5
  %159 = load i64, ptr %158, align 8
  %160 = load i64, ptr %9, align 8
  %161 = icmp ne i64 %159, %160
  br i1 %161, label %162, label %163

162:                                              ; preds = %156, %150, %147
  br label %168

163:                                              ; preds = %156
  store i32 -5, ptr %3, align 4
  br label %170

164:                                              ; preds = %144, %139
  br label %165

165:                                              ; preds = %164
  br label %166

166:                                              ; preds = %165
  br label %167

167:                                              ; preds = %166
  br label %59, !llvm.loop !15

168:                                              ; preds = %162, %138, %132, %128
  %169 = load i32, ptr %10, align 4
  store i32 %169, ptr %3, align 4
  br label %170

170:                                              ; preds = %168, %163, %48, %36, %30
  %171 = load i32, ptr %3, align 4
  ret i32 %171
}