; Function Attrs: mustprogress uwtable
define i32 @mz_deflate(ptr noundef %0, i32 noundef %1) local_unnamed_addr #9 {
  %3 = alloca i64, align 8
  %4 = alloca i64, align 8
  %.not = icmp eq ptr %0, null
  br i1 %.not, label %.loopexit, label %5

5:                                                ; preds = %2
  %6 = getelementptr inbounds i8, ptr %0, i64 56
  %7 = load ptr, ptr %6, align 8
  %8 = icmp eq ptr %7, null
  %9 = icmp ugt i32 %1, 4
  %or.cond3 = or i1 %9, %8
  br i1 %or.cond3, label %.loopexit, label %10

10:                                               ; preds = %5
  %11 = getelementptr inbounds i8, ptr %0, i64 24
  %12 = load ptr, ptr %11, align 8
  %.not46 = icmp eq ptr %12, null
  br i1 %.not46, label %.loopexit, label %13

13:                                               ; preds = %10
  %14 = getelementptr inbounds i8, ptr %0, i64 32
  %15 = load i32, ptr %14, align 8
  %.not47 = icmp eq i32 %15, 0
  br i1 %.not47, label %.loopexit, label %16

16:                                               ; preds = %13
  %17 = icmp eq i32 %1, 1
  %spec.store.select = select i1 %17, i32 2, i32 %1
  %18 = getelementptr inbounds i8, ptr %7, i64 132
  %19 = load i32, ptr %18, align 4
  %20 = icmp eq i32 %19, 1
  br i1 %20, label %21, label %24

21:                                               ; preds = %16
  %22 = icmp eq i32 %spec.store.select, 4
  %23 = select i1 %22, i32 1, i32 -5
  br label %.loopexit

24:                                               ; preds = %16
  %25 = getelementptr inbounds i8, ptr %0, i64 16
  %26 = load i64, ptr %25, align 8
  %27 = getelementptr inbounds i8, ptr %0, i64 40
  %28 = load i64, ptr %27, align 8
  %29 = getelementptr inbounds i8, ptr %0, i64 8
  %30 = getelementptr inbounds i8, ptr %0, i64 96
  %.not55 = icmp eq i32 %spec.store.select, 4
  %.pre62 = load i32, ptr %29, align 8
  %.pre63 = load ptr, ptr %0, align 8
  br i1 %.not55, label %.split.us, label %.split

.split.us:                                        ; preds = %24, %64
  %31 = phi ptr [ %55, %64 ], [ %12, %24 ]
  %32 = phi ptr [ %42, %64 ], [ %.pre63, %24 ]
  %33 = phi ptr [ %48, %64 ], [ %7, %24 ]
  %34 = phi i32 [ %58, %64 ], [ %15, %24 ]
  %35 = phi i32 [ %45, %64 ], [ %.pre62, %24 ]
  %36 = zext i32 %35 to i64
  store i64 %36, ptr %3, align 8
  %37 = zext i32 %34 to i64
  store i64 %37, ptr %4, align 8
  %38 = call i32 @tdefl_compress(ptr noundef nonnull %33, ptr noundef %32, ptr noundef nonnull %3, ptr noundef %31, ptr noundef nonnull %4, i32 noundef 4)
  %39 = load i64, ptr %3, align 8
  %40 = load ptr, ptr %0, align 8
  %41 = and i64 %39, 4294967295
  %42 = getelementptr inbounds i8, ptr %40, i64 %41
  store ptr %42, ptr %0, align 8
  %43 = trunc i64 %39 to i32
  %44 = load i32, ptr %29, align 8
  %45 = sub i32 %44, %43
  store i32 %45, ptr %29, align 8
  %46 = load i64, ptr %25, align 8
  %47 = add i64 %46, %41
  store i64 %47, ptr %25, align 8
  %48 = load ptr, ptr %6, align 8
  %49 = getelementptr inbounds i8, ptr %48, i64 32
  %50 = load i32, ptr %49, align 8
  %51 = zext i32 %50 to i64
  store i64 %51, ptr %30, align 8
  %52 = load i64, ptr %4, align 8
  %53 = load ptr, ptr %11, align 8
  %54 = and i64 %52, 4294967295
  %55 = getelementptr inbounds i8, ptr %53, i64 %54
  store ptr %55, ptr %11, align 8
  %56 = trunc i64 %52 to i32
  %57 = load i32, ptr %14, align 8
  %58 = sub i32 %57, %56
  store i32 %58, ptr %14, align 8
  %59 = load i64, ptr %27, align 8
  %60 = add i64 %59, %54
  store i64 %60, ptr %27, align 8
  %61 = icmp slt i32 %38, 0
  br i1 %61, label %.loopexit, label %62

62:                                               ; preds = %.split.us
  %63 = icmp eq i32 %38, 1
  br i1 %63, label %.loopexit, label %64

64:                                               ; preds = %62
  %.not48.us = icmp eq i32 %57, %56
  br i1 %.not48.us, label %.loopexit, label %.split.us

.split:                                           ; preds = %24, %99
  %65 = phi ptr [ %89, %99 ], [ %12, %24 ]
  %66 = phi ptr [ %76, %99 ], [ %.pre63, %24 ]
  %67 = phi ptr [ %82, %99 ], [ %7, %24 ]
  %68 = phi i32 [ %92, %99 ], [ %15, %24 ]
  %69 = phi i32 [ %79, %99 ], [ %.pre62, %24 ]
  %70 = zext i32 %69 to i64
  store i64 %70, ptr %3, align 8
  %71 = zext i32 %68 to i64
  store i64 %71, ptr %4, align 8
  %72 = call i32 @tdefl_compress(ptr noundef nonnull %67, ptr noundef %66, ptr noundef nonnull %3, ptr noundef %65, ptr noundef nonnull %4, i32 noundef %spec.store.select)
  %73 = load i64, ptr %3, align 8
  %74 = load ptr, ptr %0, align 8
  %75 = and i64 %73, 4294967295
  %76 = getelementptr inbounds i8, ptr %74, i64 %75
  store ptr %76, ptr %0, align 8
  %77 = trunc i64 %73 to i32
  %78 = load i32, ptr %29, align 8
  %79 = sub i32 %78, %77
  store i32 %79, ptr %29, align 8
  %80 = load i64, ptr %25, align 8
  %81 = add i64 %80, %75
  store i64 %81, ptr %25, align 8
  %82 = load ptr, ptr %6, align 8
  %83 = getelementptr inbounds i8, ptr %82, i64 32
  %84 = load i32, ptr %83, align 8
  %85 = zext i32 %84 to i64
  store i64 %85, ptr %30, align 8
  %86 = load i64, ptr %4, align 8
  %87 = load ptr, ptr %11, align 8
  %88 = and i64 %86, 4294967295
  %89 = getelementptr inbounds i8, ptr %87, i64 %88
  store ptr %89, ptr %11, align 8
  %90 = trunc i64 %86 to i32
  %91 = load i32, ptr %14, align 8
  %92 = sub i32 %91, %90
  store i32 %92, ptr %14, align 8
  %93 = load i64, ptr %27, align 8
  %94 = add i64 %93, %88
  store i64 %94, ptr %27, align 8
  %95 = icmp slt i32 %72, 0
  br i1 %95, label %.loopexit, label %96

96:                                               ; preds = %.split
  %97 = icmp eq i32 %72, 1
  br i1 %97, label %.loopexit, label %98

98:                                               ; preds = %96
  %.not48 = icmp eq i32 %91, %90
  br i1 %.not48, label %.loopexit, label %99

99:                                               ; preds = %98
  %100 = icmp eq i32 %78, %77
  br i1 %100, label %101, label %.split, !llvm.loop !15

101:                                              ; preds = %99
  %.not49 = icmp eq i32 %spec.store.select, 0
  br i1 %.not49, label %102, label %.loopexit

102:                                              ; preds = %101
  %.not50 = icmp eq i64 %81, %26
  %.not51 = icmp eq i64 %94, %28
  %or.cond = select i1 %.not50, i1 %.not51, i1 false
  %spec.select = select i1 %or.cond, i32 -5, i32 0
  br label %.loopexit

.loopexit:                                        ; preds = %96, %.split, %98, %64, %62, %.split.us, %102, %101, %13, %2, %5, %10, %21
  %.0 = phi i32 [ %23, %21 ], [ -2, %10 ], [ -2, %5 ], [ -2, %2 ], [ -5, %13 ], [ 0, %101 ], [ %spec.select, %102 ], [ 1, %62 ], [ -2, %.split.us ], [ 0, %64 ], [ 1, %96 ], [ -2, %.split ], [ 0, %98 ]
  ret i32 %.0
}